; Function Attrs: mustprogress uwtable
define hidden void @_ZNK6casadi6SXNode9serializeERNS_17SerializingStreamE(ptr noundef nonnull align 8 dereferenceable(16) %0, ptr noundef nonnull align 8 dereferenceable(73) %1) local_unnamed_addr #8 align 2 personality ptr @__gxx_personality_v0 {
  %3 = alloca %"class.std::__cxx11::basic_string", align 8
  %4 = alloca %"class.std::allocator", align 1
  call void @_ZNSaIcEC1Ev(ptr noundef nonnull align 1 dereferenceable(1) %4) #27
  %5 = invoke noundef ptr @_ZNSt7__cxx1112basic_stringIcSt11char_traitsIcESaIcEE13_M_local_dataEv(ptr noundef nonnull align 8 dereferenceable(32) %3)
          to label %.noexc unwind label %20

.noexc:                                           ; preds = %2
  invoke void @_ZNSt7__cxx1112basic_stringIcSt11char_traitsIcESaIcEE12_Alloc_hiderC1EPcRKS3_(ptr noundef nonnull align 8 dereferenceable(8) %3, ptr noundef %5, ptr noundef nonnull align 1 dereferenceable(1) %4)
          to label %.noexc6 unwind label %20

.noexc6:                                          ; preds = %.noexc
  invoke void @_ZNSt7__cxx1112basic_stringIcSt11char_traitsIcESaIcEE12_M_constructIPKcEEvT_S8_St20forward_iterator_tag(ptr noundef nonnull align 8 dereferenceable(32) %3, ptr noundef nonnull @.str.13, ptr noundef nonnull getelementptr inbounds ([11 x i8], ptr @.str.13, i64 0, i64 10))
          to label %_ZNSt7__cxx1112basic_stringIcSt11char_traitsIcESaIcEEC2IS3_EEPKcRKS3_.exit unwind label %6

6:                                                ; preds = %.noexc6
  %7 = landingpad { ptr, i32 }
          cleanup
  call void @_ZNSaIcED2Ev(ptr noundef nonnull align 1 dereferenceable(1) %3) #27
  br label %.body

_ZNSt7__cxx1112basic_stringIcSt11char_traitsIcESaIcEEC2IS3_EEPKcRKS3_.exit: ; preds = %.noexc6
  %8 = load ptr, ptr %0, align 8
  %9 = getelementptr inbounds i8, ptr %8, i64 136
  %10 = load ptr, ptr %9, align 8
  %11 = invoke noundef i64 %10(ptr noundef nonnull align 8 dereferenceable(16) %0)
          to label %12 unwind label %22

12:                                               ; preds = %_ZNSt7__cxx1112basic_stringIcSt11char_traitsIcESaIcEEC2IS3_EEPKcRKS3_.exit
  %13 = getelementptr inbounds i8, ptr %1, i64 72
  %14 = load i8, ptr %13, align 8
  %15 = and i8 %14, 1
  %.not.i = icmp eq i8 %15, 0
  br i1 %.not.i, label %.noexc7, label %16

16:                                               ; preds = %12
  invoke void @_ZN6casadi17SerializingStream4packERKNSt7__cxx1112basic_stringIcSt11char_traitsIcESaIcEEE(ptr noundef nonnull align 8 dereferenceable(73) %1, ptr noundef nonnull align 8 dereferenceable(32) %3)
          to label %.noexc7 unwind label %22

.noexc7:                                          ; preds = %16, %12
  invoke void @_ZN6casadi17SerializingStream4packEx(ptr noundef nonnull align 8 dereferenceable(73) %1, i64 noundef %11)
          to label %_ZN6casadi17SerializingStream4packIxEEvRKNSt7__cxx1112basic_stringIcSt11char_traitsIcESaIcEEERKT_.exit unwind label %22

_ZN6casadi17SerializingStream4packIxEEvRKNSt7__cxx1112basic_stringIcSt11char_traitsIcESaIcEEERKT_.exit: ; preds = %.noexc7
  call void @_ZNSt7__cxx1112basic_stringIcSt11char_traitsIcESaIcEED1Ev(ptr noundef nonnull align 8 dereferenceable(32) %3) #27
  call void @_ZNSaIcED1Ev(ptr noundef nonnull align 1 dereferenceable(1) %4) #27
  %17 = load ptr, ptr %0, align 8
  %18 = getelementptr inbounds i8, ptr %17, i64 200
  %19 = load ptr, ptr %18, align 8
  call void %19(ptr noundef nonnull align 8 dereferenceable(16) %0, ptr noundef nonnull align 8 dereferenceable(73) %1)
  ret void

20:                                               ; preds = %.noexc, %2
  %21 = landingpad { ptr, i32 }
          cleanup
  br label %.body

22:                                               ; preds = %.noexc7, %16, %_ZNSt7__cxx1112basic_stringIcSt11char_traitsIcESaIcEEC2IS3_EEPKcRKS3_.exit
  %23 = landingpad { ptr, i32 }
          cleanup
  call void @_ZNSt7__cxx1112basic_stringIcSt11char_traitsIcESaIcEED1Ev(ptr noundef nonnull align 8 dereferenceable(32) %3) #27
  br label %.body

.body:                                            ; preds = %20, %6, %22
  %.pn = phi { ptr, i32 } [ %23, %22 ], [ %21, %20 ], [ %7, %6 ]
  call void @_ZNSaIcED1Ev(ptr noundef nonnull align 1 dereferenceable(1) %4) #27
  resume { ptr, i32 } %.pn
}